; Function Attrs: null_pointer_is_valid sspstrong uwtable
define internal i32 @dissect_h225_Alerting_UUIE(ptr noundef %0, i32 noundef %1, ptr noundef %2, ptr noundef %3, i32 noundef %4) #0 {
  %6 = alloca [50 x i8], align 16
  %7 = load i32, ptr @ett_h225_Alerting_UUIE, align 4
  %8 = tail call i32 @dissect_per_sequence(ptr noundef %0, i32 noundef %1, ptr noundef %2, ptr noundef %3, i32 noundef %4, i32 noundef %7, ptr noundef nonnull @Alerting_UUIE_sequence)
  %9 = getelementptr inbounds nuw i8, ptr %2, i64 16
  %10 = load ptr, ptr %9, align 8
  %11 = getelementptr inbounds nuw i8, ptr %10, i64 408
  %12 = load ptr, ptr %11, align 8
  %13 = load i32, ptr @proto_h225, align 4
  %14 = tail call ptr @p_get_proto_data(ptr noundef %12, ptr noundef %10, i32 noundef %13, i32 noundef 0)
  %15 = icmp eq ptr %14, null
  br i1 %15, label %h225_set_cs_type.exit, label %16

16:                                               ; preds = %5
  %.b8 = load i1, ptr @contains_faststart, align 1
  %17 = getelementptr inbounds nuw i8, ptr %14, i64 4
  store i32 3, ptr %17, align 4
  br i1 %.b8, label %18, label %23

18:                                               ; preds = %16
  call void @llvm.lifetime.start.p0(i64 50, ptr nonnull %6) #11
  %19 = tail call ptr @val_to_str_const(i32 noundef 3, ptr noundef nonnull @T_h323_message_body_vals, ptr noundef nonnull @.str.193)
  %20 = getelementptr inbounds nuw i8, ptr %14, i64 196
  %21 = call i32 (ptr, i64, i32, i64, ptr, ...) @__snprintf_chk(ptr noundef nonnull %6, i64 noundef 50, i32 noundef 2, i64 noundef 50, ptr noundef nonnull @.str.1690, ptr noundef %19, ptr noundef nonnull %20)
  %22 = call i64 @g_strlcpy(ptr noundef nonnull %20, ptr noundef nonnull %6, i64 noundef 50)
  call void @llvm.lifetime.end.p0(i64 50, ptr nonnull %6) #11
  br label %h225_set_cs_type.exit

23:                                               ; preds = %16
  %24 = getelementptr inbounds nuw i8, ptr %14, i64 196
  %25 = tail call ptr @val_to_str_const(i32 noundef 3, ptr noundef nonnull @T_h323_message_body_vals, ptr noundef nonnull @.str.193)
  %26 = tail call i32 (ptr, i64, i32, i64, ptr, ...) @__snprintf_chk(ptr noundef nonnull %24, i64 noundef 50, i32 noundef 2, i64 noundef 50, ptr noundef nonnull @.str.1691, ptr noundef %25)
  br label %h225_set_cs_type.exit

h225_set_cs_type.exit:                            ; preds = %5, %18, %23
  ret i32 %8
}